target datalayout = "e-m:e-p270:32:32-p271:32:32-p272:64:64-i64:64-i128:128-f80:128-n8:16:32:64-S128"
target triple = "x86_64-pc-linux-gnu"

%"class.llvm::StringRef" = type { ptr, i64 }
%"class.llvm::SectionKind" = type { i8, [3 x i8] }
%"class.llvm::Value" = type { i8, i8, i16, i32, ptr, ptr }
%"class.llvm::GlobalVariable" = type <{ %"class.llvm::GlobalObject", %"class.llvm::ilist_node", %"class.llvm::AttributeSet", i8, [7 x i8] }>
%"class.llvm::GlobalObject" = type { %"class.llvm::GlobalValue", ptr }
%"class.llvm::GlobalValue" = type { %"class.llvm::Constant", ptr, i32, i32, ptr }
%"class.llvm::Constant" = type { %"class.llvm::User" }
%"class.llvm::User" = type { %"class.llvm::Value" }
%"class.llvm::ilist_node" = type { %"class.llvm::ilist_node_impl" }
%"class.llvm::ilist_node_impl" = type { %"class.llvm::ilist_node_base" }
%"class.llvm::ilist_node_base" = type { %"class.llvm::ilist_detail::node_base_prevnext" }
%"class.llvm::ilist_detail::node_base_prevnext" = type { ptr, ptr }
%"class.llvm::AttributeSet" = type { ptr }

@.str.1 = private unnamed_addr constant [12 x i8] c"bss-section\00", align 1
@.str.2 = private unnamed_addr constant [13 x i8] c"data-section\00", align 1
@.str.3 = private unnamed_addr constant [14 x i8] c"relro-section\00", align 1
@.str.4 = private unnamed_addr constant [15 x i8] c"rodata-section\00", align 1

; Function Attrs: mustprogress nounwind uwtable
define linkonce_odr hidden noundef i32 @_ZNK4llvm5Value10getValueIDEv(ptr noundef nonnull align 8 dereferenceable(24) %0) #0 comdat align 2 {
  %2 = alloca ptr, align 8
  store ptr %0, ptr %2, align 8
  %3 = load ptr, ptr %2, align 8
  %4 = getelementptr inbounds nuw %"class.llvm::Value", ptr %3, i32 0, i32 0
  %5 = load i8, ptr %4, align 8
  %6 = zext i8 %5 to i32
  ret i32 %6
}

; Function Attrs: mustprogress nounwind uwtable
define linkonce_odr hidden noundef zeroext i1 @_ZN4llvm14GlobalVariable7classofEPKNS_5ValueE(ptr noundef %0) #0 comdat align 2 {
  %2 = alloca ptr, align 8
  store ptr %0, ptr %2, align 8
  %3 = load ptr, ptr %2, align 8
  %4 = call noundef i32 @_ZNK4llvm5Value10getValueIDEv(ptr noundef nonnull align 8 dereferenceable(24) %3)
  %5 = icmp eq i32 %4, 3
  ret i1 %5
}

; Function Attrs: mustprogress nounwind uwtable
define linkonce_odr hidden noundef zeroext i1 @_ZN4llvm8isa_implINS_14GlobalVariableENS_12GlobalObjectEvE4doitERKS2_(ptr noundef nonnull align 8 dereferenceable(56) %0) #0 comdat align 2 {
  %2 = alloca ptr, align 8
  store ptr %0, ptr %2, align 8
  %3 = load ptr, ptr %2, align 8
  %4 = call noundef zeroext i1 @_ZN4llvm14GlobalVariable7classofEPKNS_5ValueE(ptr noundef %3)
  ret i1 %4
}

; Function Attrs: mustprogress nounwind uwtable
define linkonce_odr hidden noundef zeroext i1 @_ZN4llvm11isa_impl_clINS_14GlobalVariableEPKNS_12GlobalObjectEE4doitES4_(ptr noundef %0) #0 comdat align 2 {
  %2 = alloca ptr, align 8
  store ptr %0, ptr %2, align 8
  %3 = load ptr, ptr %2, align 8
  %4 = call noundef zeroext i1 @_ZN4llvm8isa_implINS_14GlobalVariableENS_12GlobalObjectEvE4doitERKS2_(ptr noundef nonnull align 8 dereferenceable(56) %3)
  ret i1 %4
}

; Function Attrs: mustprogress nounwind uwtable
define linkonce_odr hidden noundef nonnull align 8 dereferenceable(8) ptr @_ZN4llvm13simplify_typeIPKNS_12GlobalObjectEE18getSimplifiedValueERS3_(ptr noundef nonnull align 8 dereferenceable(8) %0) #0 comdat align 2 {
  %2 = alloca ptr, align 8
  store ptr %0, ptr %2, align 8
  %3 = load ptr, ptr %2, align 8
  ret ptr %3
}

; Function Attrs: mustprogress nounwind uwtable
define linkonce_odr hidden noundef zeroext i1 @_ZN4llvm13isa_impl_wrapINS_14GlobalVariableEPKNS_12GlobalObjectES4_E4doitERKS4_(ptr noundef nonnull align 8 dereferenceable(8) %0) #0 comdat align 2 {
  %2 = alloca ptr, align 8
  store ptr %0, ptr %2, align 8
  %3 = load ptr, ptr %2, align 8
  %4 = load ptr, ptr %3, align 8
  %5 = call noundef zeroext i1 @_ZN4llvm11isa_impl_clINS_14GlobalVariableEPKNS_12GlobalObjectEE4doitES4_(ptr noundef %4)
  ret i1 %5
}

; Function Attrs: mustprogress nounwind uwtable
define linkonce_odr hidden noundef ptr @_ZN4llvm13simplify_typeIKPKNS_12GlobalObjectEE18getSimplifiedValueERS4_(ptr noundef nonnull align 8 dereferenceable(8) %0) #0 comdat align 2 {
  %2 = alloca ptr, align 8
  store ptr %0, ptr %2, align 8
  %3 = load ptr, ptr %2, align 8
  %4 = call noundef nonnull align 8 dereferenceable(8) ptr @_ZN4llvm13simplify_typeIPKNS_12GlobalObjectEE18getSimplifiedValueERS3_(ptr noundef nonnull align 8 dereferenceable(8) %3)
  %5 = load ptr, ptr %4, align 8
  ret ptr %5
}

; Function Attrs: mustprogress nounwind uwtable
define linkonce_odr hidden noundef ptr @_ZN4llvm16cast_convert_valINS_14GlobalVariableEPKNS_12GlobalObjectES4_E4doitES4_(ptr noundef %0) #0 comdat align 2 {
  %2 = alloca ptr, align 8
  store ptr %0, ptr %2, align 8
  %3 = load ptr, ptr %2, align 8
  ret ptr %3
}

; Function Attrs: mustprogress nounwind uwtable
define linkonce_odr hidden noundef zeroext i1 @_ZN4llvm13isa_impl_wrapINS_14GlobalVariableEKPKNS_12GlobalObjectES4_E4doitERS5_(ptr noundef nonnull align 8 dereferenceable(8) %0) #0 comdat align 2 {
  %2 = alloca ptr, align 8
  %3 = alloca ptr, align 8
  store ptr %0, ptr %2, align 8
  %4 = load ptr, ptr %2, align 8
  %5 = call noundef ptr @_ZN4llvm13simplify_typeIKPKNS_12GlobalObjectEE18getSimplifiedValueERS4_(ptr noundef nonnull align 8 dereferenceable(8) %4)
  store ptr %5, ptr %3, align 8
  %6 = call noundef zeroext i1 @_ZN4llvm13isa_impl_wrapINS_14GlobalVariableEPKNS_12GlobalObjectES4_E4doitERKS4_(ptr noundef nonnull align 8 dereferenceable(8) %3)
  ret i1 %6
}

; Function Attrs: mustprogress nounwind uwtable
define linkonce_odr hidden noundef ptr @_ZN4llvm8CastInfoINS_14GlobalVariableEPKNS_12GlobalObjectEvE6doCastERKS4_(ptr noundef nonnull align 8 dereferenceable(8) %0) #0 comdat align 2 {
  %2 = alloca ptr, align 8
  store ptr %0, ptr %2, align 8
  %3 = load ptr, ptr %2, align 8
  %4 = load ptr, ptr %3, align 8
  %5 = call noundef ptr @_ZN4llvm16cast_convert_valINS_14GlobalVariableEPKNS_12GlobalObjectES4_E4doitES4_(ptr noundef %4)
  ret ptr %5
}

; Function Attrs: mustprogress nounwind uwtable
define linkonce_odr hidden noundef ptr @_ZN4llvm8CastInfoINS_14GlobalVariableEPKNS_12GlobalObjectEvE10castFailedEv() #0 comdat align 2 {
  ret ptr null
}

; Function Attrs: mustprogress nounwind uwtable
define linkonce_odr hidden noundef zeroext i1 @_ZN4llvm14CastIsPossibleINS_14GlobalVariableEPKNS_12GlobalObjectEvE10isPossibleERKS4_(ptr noundef nonnull align 8 dereferenceable(8) %0) #0 comdat align 2 {
  %2 = alloca ptr, align 8
  store ptr %0, ptr %2, align 8
  %3 = load ptr, ptr %2, align 8
  %4 = call noundef zeroext i1 @_ZN4llvm13isa_impl_wrapINS_14GlobalVariableEKPKNS_12GlobalObjectES4_E4doitERS5_(ptr noundef nonnull align 8 dereferenceable(8) %3)
  ret i1 %4
}

; Function Attrs: mustprogress nounwind uwtable
define linkonce_odr hidden noundef zeroext i1 @_ZNK4llvm11SectionKind16isMergeableConstEv(ptr noundef nonnull align 4 dereferenceable(1) %0) #0 comdat align 2 {
  %2 = alloca ptr, align 8
  store ptr %0, ptr %2, align 8
  %3 = load ptr, ptr %2, align 8
  %4 = load i8, ptr %3, align 4
  %5 = zext i8 %4 to i32
  %6 = icmp eq i32 %5, 8
  br i1 %6, label %19, label %7

7:                                                ; preds = %1
  %8 = load i8, ptr %3, align 4
  %9 = zext i8 %8 to i32
  %10 = icmp eq i32 %9, 9
  br i1 %10, label %19, label %11

11:                                               ; preds = %7
  %12 = load i8, ptr %3, align 4
  %13 = zext i8 %12 to i32
  %14 = icmp eq i32 %13, 10
  br i1 %14, label %19, label %15

15:                                               ; preds = %11
  %16 = load i8, ptr %3, align 4
  %17 = zext i8 %16 to i32
  %18 = icmp eq i32 %17, 11
  br label %19

19:                                               ; preds = %15, %11, %7, %1
  %20 = phi i1 [ true, %11 ], [ true, %7 ], [ true, %1 ], [ %18, %15 ]
  ret i1 %20
}

; Function Attrs: mustprogress nounwind uwtable
define linkonce_odr hidden noundef zeroext i1 @_ZNK4llvm11SectionKind18isMergeableCStringEv(ptr noundef nonnull align 4 dereferenceable(1) %0) #0 comdat align 2 {
  %2 = alloca ptr, align 8
  store ptr %0, ptr %2, align 8
  %3 = load ptr, ptr %2, align 8
  %4 = load i8, ptr %3, align 4
  %5 = zext i8 %4 to i32
  %6 = icmp eq i32 %5, 5
  br i1 %6, label %15, label %7

7:                                                ; preds = %1
  %8 = load i8, ptr %3, align 4
  %9 = zext i8 %8 to i32
  %10 = icmp eq i32 %9, 6
  br i1 %10, label %15, label %11

11:                                               ; preds = %7
  %12 = load i8, ptr %3, align 4
  %13 = zext i8 %12 to i32
  %14 = icmp eq i32 %13, 7
  br label %15

15:                                               ; preds = %11, %7, %1
  %16 = phi i1 [ true, %7 ], [ true, %1 ], [ %14, %11 ]
  ret i1 %16
}

; Function Attrs: mustprogress nounwind uwtable
define linkonce_odr hidden noundef i64 @_ZNSt11char_traitsIcE6lengthEPKc(ptr noundef %0) #0 comdat align 2 {
  %2 = alloca ptr, align 8
  store ptr %0, ptr %2, align 8
  %3 = load ptr, ptr %2, align 8
  %4 = call i64 @strlen(ptr noundef %3) #11
  ret i64 %4
}

; Function Attrs: mustprogress nounwind uwtable
define linkonce_odr hidden noundef ptr @_ZN4llvm8CastInfoINS_14GlobalVariableEPKNS_12GlobalObjectEvE16doCastIfPossibleERKS4_(ptr noundef nonnull align 8 dereferenceable(8) %0) #0 comdat align 2 {
  %2 = alloca ptr, align 8
  %3 = alloca ptr, align 8
  store ptr %0, ptr %3, align 8
  %4 = load ptr, ptr %3, align 8
  %5 = call noundef zeroext i1 @_ZN4llvm14CastIsPossibleINS_14GlobalVariableEPKNS_12GlobalObjectEvE10isPossibleERKS4_(ptr noundef nonnull align 8 dereferenceable(8) %4)
  br i1 %5, label %8, label %6

6:                                                ; preds = %1
  %7 = call noundef ptr @_ZN4llvm8CastInfoINS_14GlobalVariableEPKNS_12GlobalObjectEvE10castFailedEv()
  store ptr %7, ptr %2, align 8
  br label %11

8:                                                ; preds = %1
  %9 = load ptr, ptr %3, align 8
  %10 = call noundef ptr @_ZN4llvm8CastInfoINS_14GlobalVariableEPKNS_12GlobalObjectEvE6doCastERKS4_(ptr noundef nonnull align 8 dereferenceable(8) %9)
  store ptr %10, ptr %2, align 8
  br label %11

11:                                               ; preds = %8, %6
  %12 = load ptr, ptr %2, align 8
  ret ptr %12
}

; Function Attrs: mustprogress nounwind uwtable
define linkonce_odr hidden noundef i32 @_ZNK4llvm11GlobalValue26getGlobalValueSubClassDataEv(ptr noundef nonnull align 8 dereferenceable(48) %0) #0 comdat align 2 {
  %2 = alloca ptr, align 8
  store ptr %0, ptr %2, align 8
  %3 = load ptr, ptr %2, align 8
  %4 = getelementptr inbounds nuw %"class.llvm::GlobalValue", ptr %3, i32 0, i32 2
  %5 = load i32, ptr %4, align 8
  %6 = lshr i32 %5, 17
  ret i32 %6
}

; Function Attrs: mustprogress nounwind uwtable
define linkonce_odr hidden noundef zeroext i1 @_ZNK4llvm11SectionKind10isReadOnlyEv(ptr noundef nonnull align 4 dereferenceable(1) %0) #0 comdat align 2 {
  %2 = alloca ptr, align 8
  store ptr %0, ptr %2, align 8
  %3 = load ptr, ptr %2, align 8
  %4 = load i8, ptr %3, align 4
  %5 = zext i8 %4 to i32
  %6 = icmp eq i32 %5, 4
  br i1 %6, label %11, label %7

7:                                                ; preds = %1
  %8 = call noundef zeroext i1 @_ZNK4llvm11SectionKind18isMergeableCStringEv(ptr noundef nonnull align 4 dereferenceable(1) %3)
  br i1 %8, label %11, label %9

9:                                                ; preds = %7
  %10 = call noundef zeroext i1 @_ZNK4llvm11SectionKind16isMergeableConstEv(ptr noundef nonnull align 4 dereferenceable(1) %3)
  br label %11

11:                                               ; preds = %9, %7, %1
  %12 = phi i1 [ true, %7 ], [ true, %1 ], [ %10, %9 ]
  ret i1 %12
}

; Function Attrs: mustprogress nounwind uwtable
define linkonce_odr hidden noundef zeroext i1 @_ZNK4llvm11SectionKind17isReadOnlyWithRelEv(ptr noundef nonnull align 4 dereferenceable(1) %0) #0 comdat align 2 {
  %2 = alloca ptr, align 8
  store ptr %0, ptr %2, align 8
  %3 = load ptr, ptr %2, align 8
  %4 = load i8, ptr %3, align 4
  %5 = zext i8 %4 to i32
  %6 = icmp eq i32 %5, 20
  ret i1 %6
}

; Function Attrs: mustprogress nounwind uwtable
define linkonce_odr hidden noundef zeroext i1 @_ZNK4llvm11SectionKind6isDataEv(ptr noundef nonnull align 4 dereferenceable(1) %0) #0 comdat align 2 {
  %2 = alloca ptr, align 8
  store ptr %0, ptr %2, align 8
  %3 = load ptr, ptr %2, align 8
  %4 = load i8, ptr %3, align 4
  %5 = zext i8 %4 to i32
  %6 = icmp eq i32 %5, 19
  ret i1 %6
}

; Function Attrs: mustprogress nounwind uwtable
define linkonce_odr hidden noundef zeroext i1 @_ZNK4llvm11SectionKind5isBSSEv(ptr noundef nonnull align 4 dereferenceable(1) %0) #0 comdat align 2 {
  %2 = alloca ptr, align 8
  store ptr %0, ptr %2, align 8
  %3 = load ptr, ptr %2, align 8
  %4 = load i8, ptr %3, align 4
  %5 = zext i8 %4 to i32
  %6 = icmp eq i32 %5, 15
  br i1 %6, label %15, label %7

7:                                                ; preds = %1
  %8 = load i8, ptr %3, align 4
  %9 = zext i8 %8 to i32
  %10 = icmp eq i32 %9, 16
  br i1 %10, label %15, label %11

11:                                               ; preds = %7
  %12 = load i8, ptr %3, align 4
  %13 = zext i8 %12 to i32
  %14 = icmp eq i32 %13, 17
  br label %15

15:                                               ; preds = %11, %7, %1
  %16 = phi i1 [ true, %7 ], [ true, %1 ], [ %14, %11 ]
  ret i1 %16
}

; Function Attrs: mustprogress nounwind uwtable
define linkonce_odr hidden void @_ZN4llvm9StringRefC2EPKc(ptr noundef nonnull align 8 dereferenceable(16) %0, ptr noundef %1) unnamed_addr #0 comdat align 2 {
  %3 = alloca ptr, align 8
  %4 = alloca ptr, align 8
  store ptr %0, ptr %3, align 8
  store ptr %1, ptr %4, align 8
  %5 = load ptr, ptr %3, align 8
  %6 = getelementptr inbounds nuw %"class.llvm::StringRef", ptr %5, i32 0, i32 0
  %7 = load ptr, ptr %4, align 8
  store ptr %7, ptr %6, align 8
  %8 = getelementptr inbounds nuw %"class.llvm::StringRef", ptr %5, i32 0, i32 1
  %9 = load ptr, ptr %4, align 8
  %10 = icmp ne ptr %9, null
  br i1 %10, label %11, label %14

11:                                               ; preds = %2
  %12 = load ptr, ptr %4, align 8
  %13 = call noundef i64 @_ZNSt11char_traitsIcE6lengthEPKc(ptr noundef %12)
  br label %15

14:                                               ; preds = %2
  br label %15

15:                                               ; preds = %14, %11
  %16 = phi i64 [ %13, %11 ], [ 0, %14 ]
  store i64 %16, ptr %8, align 8
  ret void
}

; Function Attrs: mustprogress nounwind uwtable
define linkonce_odr hidden ptr @_ZNK4llvm14GlobalVariable13getAttributesEv(ptr noundef nonnull align 8 dereferenceable(81) %0) #0 comdat align 2 {
  %2 = alloca %"class.llvm::AttributeSet", align 8
  %3 = alloca ptr, align 8
  store ptr %0, ptr %3, align 8
  %4 = load ptr, ptr %3, align 8
  %5 = getelementptr inbounds nuw %"class.llvm::GlobalVariable", ptr %4, i32 0, i32 2
  call void @llvm.memcpy.p0.p0.i64(ptr align 8 %2, ptr align 8 %5, i64 8, i1 false)
  %6 = getelementptr inbounds nuw %"class.llvm::AttributeSet", ptr %2, i32 0, i32 0
  %7 = load ptr, ptr %6, align 8
  ret ptr %7
}

; Function Attrs: mustprogress nounwind uwtable
define linkonce_odr hidden noundef ptr @_ZN4llvm8dyn_castINS_14GlobalVariableEKNS_12GlobalObjectEEEDcPT0_(ptr noundef %0) #0 comdat {
  %2 = alloca ptr, align 8
  store ptr %0, ptr %2, align 8
  %3 = call noundef ptr @_ZN4llvm8CastInfoINS_14GlobalVariableEPKNS_12GlobalObjectEvE16doCastIfPossibleERKS4_(ptr noundef nonnull align 8 dereferenceable(8) %2)
  ret ptr %3
}

; Function Attrs: mustprogress nounwind uwtable
define linkonce_odr hidden noundef zeroext i1 @_ZNK4llvm12GlobalObject10hasSectionEv(ptr noundef nonnull align 8 dereferenceable(56) %0) #0 comdat align 2 {
  %2 = alloca ptr, align 8
  store ptr %0, ptr %2, align 8
  %3 = load ptr, ptr %2, align 8
  %4 = call noundef i32 @_ZNK4llvm11GlobalValue26getGlobalValueSubClassDataEv(ptr noundef nonnull align 8 dereferenceable(48) %3)
  %5 = and i32 %4, 512
  %6 = icmp ne i32 %5, 0
  ret i1 %6
}

; Function Attrs: mustprogress nounwind uwtable
define dso_local noundef ptr @_ZNK4llvm24TargetLoweringObjectFile16SectionForGlobalEPKNS_12GlobalObjectENS_11SectionKindERKNS_13TargetMachineE(ptr noundef nonnull align 8 dereferenceable(968) %0, ptr noundef %1, i32 %2, ptr noundef nonnull align 8 dereferenceable(1232) %3) #0 align 2 {
  %5 = alloca ptr, align 8
  %6 = alloca %"class.llvm::SectionKind", align 4
  %7 = alloca ptr, align 8
  %8 = alloca ptr, align 8
  %9 = alloca ptr, align 8
  %10 = alloca %"class.llvm::SectionKind", align 4
  %11 = alloca ptr, align 8
  %12 = alloca %"class.llvm::AttributeSet", align 8
  %13 = alloca %"class.llvm::StringRef", align 8
  %14 = alloca %"class.llvm::StringRef", align 8
  %15 = alloca %"class.llvm::StringRef", align 8
  %16 = alloca %"class.llvm::StringRef", align 8
  %17 = alloca %"class.llvm::SectionKind", align 4
  %18 = alloca %"class.llvm::SectionKind", align 4
  store i32 %2, ptr %6, align 4
  store ptr %0, ptr %7, align 8
  store ptr %1, ptr %8, align 8
  store ptr %3, ptr %9, align 8
  %19 = load ptr, ptr %7, align 8
  %20 = load ptr, ptr %8, align 8
  %21 = call noundef zeroext i1 @_ZNK4llvm12GlobalObject10hasSectionEv(ptr noundef nonnull align 8 dereferenceable(56) %20)
  br i1 %21, label %22, label %30

22:                                               ; preds = %4
  %23 = load ptr, ptr %8, align 8
  call void @llvm.memcpy.p0.p0.i64(ptr align 4 %10, ptr align 4 %6, i64 4, i1 false)
  %24 = load ptr, ptr %9, align 8
  %25 = load i32, ptr %10, align 4
  %26 = load ptr, ptr %19, align 8
  %27 = getelementptr inbounds ptr, ptr %26, i64 14
  %28 = load ptr, ptr %27, align 8
  %29 = call noundef ptr %28(ptr noundef nonnull align 8 dereferenceable(968) %19, ptr noundef %23, i32 %25, ptr noundef nonnull align 8 dereferenceable(1232) %24)
  store ptr %29, ptr %5, align 8
  br label %87

30:                                               ; preds = %4
  %31 = load ptr, ptr %8, align 8
  %32 = call noundef ptr @_ZN4llvm8dyn_castINS_14GlobalVariableEKNS_12GlobalObjectEEEDcPT0_(ptr noundef %31)
  store ptr %32, ptr %11, align 8
  %33 = load ptr, ptr %11, align 8
  %34 = icmp ne ptr %33, null
  br i1 %34, label %35, label %79

35:                                               ; preds = %30
  %36 = load ptr, ptr %11, align 8
  %37 = call ptr @_ZNK4llvm14GlobalVariable13getAttributesEv(ptr noundef nonnull align 8 dereferenceable(81) %36)
  %38 = getelementptr inbounds nuw %"class.llvm::AttributeSet", ptr %12, i32 0, i32 0
  store ptr %37, ptr %38, align 8
  call void @_ZN4llvm9StringRefC2EPKc(ptr noundef nonnull align 8 dereferenceable(16) %13, ptr noundef @.str.1)
  %39 = getelementptr inbounds nuw { ptr, i64 }, ptr %13, i32 0, i32 0
  %40 = load ptr, ptr %39, align 8
  %41 = getelementptr inbounds nuw { ptr, i64 }, ptr %13, i32 0, i32 1
  %42 = load i64, ptr %41, align 8
  %43 = call noundef zeroext i1 @_ZNK4llvm12AttributeSet12hasAttributeENS_9StringRefE(ptr noundef nonnull align 8 dereferenceable(8) %12, ptr %40, i64 %42)
  br i1 %43, label %44, label %46

44:                                               ; preds = %35
  %45 = call noundef zeroext i1 @_ZNK4llvm11SectionKind5isBSSEv(ptr noundef nonnull align 4 dereferenceable(1) %6)
  br i1 %45, label %70, label %46

46:                                               ; preds = %44, %35
  call void @_ZN4llvm9StringRefC2EPKc(ptr noundef nonnull align 8 dereferenceable(16) %14, ptr noundef @.str.2)
  %47 = getelementptr inbounds nuw { ptr, i64 }, ptr %14, i32 0, i32 0
  %48 = load ptr, ptr %47, align 8
  %49 = getelementptr inbounds nuw { ptr, i64 }, ptr %14, i32 0, i32 1
  %50 = load i64, ptr %49, align 8
  %51 = call noundef zeroext i1 @_ZNK4llvm12AttributeSet12hasAttributeENS_9StringRefE(ptr noundef nonnull align 8 dereferenceable(8) %12, ptr %48, i64 %50)
  br i1 %51, label %52, label %54

52:                                               ; preds = %46
  %53 = call noundef zeroext i1 @_ZNK4llvm11SectionKind6isDataEv(ptr noundef nonnull align 4 dereferenceable(1) %6)
  br i1 %53, label %70, label %54

54:                                               ; preds = %52, %46
  call void @_ZN4llvm9StringRefC2EPKc(ptr noundef nonnull align 8 dereferenceable(16) %15, ptr noundef @.str.3)
  %55 = getelementptr inbounds nuw { ptr, i64 }, ptr %15, i32 0, i32 0
  %56 = load ptr, ptr %55, align 8
  %57 = getelementptr inbounds nuw { ptr, i64 }, ptr %15, i32 0, i32 1
  %58 = load i64, ptr %57, align 8
  %59 = call noundef zeroext i1 @_ZNK4llvm12AttributeSet12hasAttributeENS_9StringRefE(ptr noundef nonnull align 8 dereferenceable(8) %12, ptr %56, i64 %58)
  br i1 %59, label %60, label %62

60:                                               ; preds = %54
  %61 = call noundef zeroext i1 @_ZNK4llvm11SectionKind17isReadOnlyWithRelEv(ptr noundef nonnull align 4 dereferenceable(1) %6)
  br i1 %61, label %70, label %62

62:                                               ; preds = %60, %54
  call void @_ZN4llvm9StringRefC2EPKc(ptr noundef nonnull align 8 dereferenceable(16) %16, ptr noundef @.str.4)
  %63 = getelementptr inbounds nuw { ptr, i64 }, ptr %16, i32 0, i32 0
  %64 = load ptr, ptr %63, align 8
  %65 = getelementptr inbounds nuw { ptr, i64 }, ptr %16, i32 0, i32 1
  %66 = load i64, ptr %65, align 8
  %67 = call noundef zeroext i1 @_ZNK4llvm12AttributeSet12hasAttributeENS_9StringRefE(ptr noundef nonnull align 8 dereferenceable(8) %12, ptr %64, i64 %66)
  br i1 %67, label %68, label %78

68:                                               ; preds = %62
  %69 = call noundef zeroext i1 @_ZNK4llvm11SectionKind10isReadOnlyEv(ptr noundef nonnull align 4 dereferenceable(1) %6)
  br i1 %69, label %70, label %78

70:                                               ; preds = %68, %60, %52, %44
  %71 = load ptr, ptr %8, align 8
  call void @llvm.memcpy.p0.p0.i64(ptr align 4 %17, ptr align 4 %6, i64 4, i1 false)
  %72 = load ptr, ptr %9, align 8
  %73 = load i32, ptr %17, align 4
  %74 = load ptr, ptr %19, align 8
  %75 = getelementptr inbounds ptr, ptr %74, i64 14
  %76 = load ptr, ptr %75, align 8
  %77 = call noundef ptr %76(ptr noundef nonnull align 8 dereferenceable(968) %19, ptr noundef %71, i32 %73, ptr noundef nonnull align 8 dereferenceable(1232) %72)
  store ptr %77, ptr %5, align 8
  br label %87

78:                                               ; preds = %68, %62
  br label %79

79:                                               ; preds = %78, %30
  %80 = load ptr, ptr %8, align 8
  call void @llvm.memcpy.p0.p0.i64(ptr align 4 %18, ptr align 4 %6, i64 4, i1 false)
  %81 = load ptr, ptr %9, align 8
  %82 = load i32, ptr %18, align 4
  %83 = load ptr, ptr %19, align 8
  %84 = getelementptr inbounds ptr, ptr %83, i64 31
  %85 = load ptr, ptr %84, align 8
  %86 = call noundef ptr %85(ptr noundef nonnull align 8 dereferenceable(968) %19, ptr noundef %80, i32 %82, ptr noundef nonnull align 8 dereferenceable(1232) %81)
  store ptr %86, ptr %5, align 8
  br label %87

87:                                               ; preds = %79, %70, %22
  %88 = load ptr, ptr %5, align 8
  ret ptr %88
}