; Function Attrs: mustprogress nounwind uwtable
define dso_local noundef ptr @_ZNK4llvm24TargetLoweringObjectFile16SectionForGlobalEPKNS_12GlobalObjectENS_11SectionKindERKNS_13TargetMachineE(ptr noundef nonnull align 8 dereferenceable(968) %0, ptr noundef %1, i32 %2, ptr noundef nonnull align 8 dereferenceable(1232) %3) local_unnamed_addr #0 align 2 {
  %5 = alloca %"class.llvm::AttributeSet", align 8
  %.sroa.022.0.extract.trunc = trunc i32 %2 to i8
  %6 = getelementptr inbounds nuw i8, ptr %1, i64 32
  %7 = load i32, ptr %6, align 8
  %8 = and i32 %7, 67108864
  %.not44 = icmp eq i32 %8, 0
  br i1 %.not44, label %14, label %9

9:                                                ; preds = %4
  %10 = load ptr, ptr %0, align 8
  %11 = getelementptr inbounds nuw i8, ptr %10, i64 112
  %12 = load ptr, ptr %11, align 8
  %13 = tail call noundef ptr %12(ptr noundef nonnull align 8 dereferenceable(968) %0, ptr noundef nonnull %1, i32 %2, ptr noundef nonnull align 8 dereferenceable(1232) %3) #16
  br label %39

14:                                               ; preds = %4
  %15 = load i8, ptr %1, align 8
  %.not = icmp eq i8 %15, 3
  br i1 %.not, label %16, label %34

16:                                               ; preds = %14
  %17 = getelementptr inbounds nuw i8, ptr %1, i64 72
  %.sroa.0.0.copyload.i = load ptr, ptr %17, align 8
  store ptr %.sroa.0.0.copyload.i, ptr %5, align 8
  %18 = call noundef zeroext i1 @_ZNK4llvm12AttributeSet12hasAttributeENS_9StringRefE(ptr noundef nonnull align 8 dereferenceable(8) %5, ptr nonnull @.str.1, i64 11) #16
  %.off.i = add i8 %.sroa.022.0.extract.trunc, -15
  %switch.i = icmp ult i8 %.off.i, 3
  %or.cond = select i1 %18, i1 %switch.i, i1 false
  br i1 %or.cond, label %29, label %19

19:                                               ; preds = %16
  %20 = call noundef zeroext i1 @_ZNK4llvm12AttributeSet12hasAttributeENS_9StringRefE(ptr noundef nonnull align 8 dereferenceable(8) %5, ptr nonnull @.str.2, i64 12) #16
  %21 = icmp eq i8 %.sroa.022.0.extract.trunc, 19
  %or.cond42 = select i1 %20, i1 %21, i1 false
  br i1 %or.cond42, label %29, label %22

22:                                               ; preds = %19
  %23 = call noundef zeroext i1 @_ZNK4llvm12AttributeSet12hasAttributeENS_9StringRefE(ptr noundef nonnull align 8 dereferenceable(8) %5, ptr nonnull @.str.3, i64 13) #16
  %24 = icmp eq i8 %.sroa.022.0.extract.trunc, 20
  %or.cond43 = select i1 %23, i1 %24, i1 false
  br i1 %or.cond43, label %29, label %25

25:                                               ; preds = %22
  %26 = call noundef zeroext i1 @_ZNK4llvm12AttributeSet12hasAttributeENS_9StringRefE(ptr noundef nonnull align 8 dereferenceable(8) %5, ptr nonnull @.str.4, i64 14) #16
  br i1 %26, label %27, label %34

27:                                               ; preds = %25
  %28 = and i8 %.sroa.022.0.extract.trunc, -4
  switch i8 %28, label %34 [
    i8 8, label %29
    i8 4, label %29
  ]

29:                                               ; preds = %27, %27, %22, %19, %16
  %30 = load ptr, ptr %0, align 8
  %31 = getelementptr inbounds nuw i8, ptr %30, i64 112
  %32 = load ptr, ptr %31, align 8
  %33 = call noundef ptr %32(ptr noundef nonnull align 8 dereferenceable(968) %0, ptr noundef nonnull %1, i32 %2, ptr noundef nonnull align 8 dereferenceable(1232) %3) #16
  br label %39

34:                                               ; preds = %27, %25, %14
  %35 = load ptr, ptr %0, align 8
  %36 = getelementptr inbounds nuw i8, ptr %35, i64 248
  %37 = load ptr, ptr %36, align 8
  %38 = call noundef ptr %37(ptr noundef nonnull align 8 dereferenceable(968) %0, ptr noundef nonnull %1, i32 %2, ptr noundef nonnull align 8 dereferenceable(1232) %3) #16
  br label %39

39:                                               ; preds = %34, %29, %9
  %.0 = phi ptr [ %13, %9 ], [ %33, %29 ], [ %38, %34 ]
  ret ptr %.0
}